target datalayout = "e-m:e-p270:32:32-p271:32:32-p272:64:64-i64:64-i128:128-f80:128-n8:16:32:64-S128"
target triple = "x86_64-unknown-linux-gnu"

%struct.ggml_tensor = type { i32, i32, ptr, [4 x i64], [4 x i64], i32, [16 x i32], i8, ptr, [10 x ptr], i32, i64, i64, ptr, i64, ptr, [64 x i8], ptr, [8 x i8] }

@stderr = external global ptr, align 8
@stdout = external global ptr, align 8
@.str.2 = private unnamed_addr constant [24 x i8] c"GGML_ASSERT: %s:%d: %s\0A\00", align 1
@.str.3 = private unnamed_addr constant [114 x i8] c"generated/home/dtcxzyw/WorkSpace/Projects/compilers/llvm-opt-benchmark/bench/llama.cpp/llama.cpp/common/train.cpp\00", align 1
@.str.21 = private unnamed_addr constant [24 x i8] c"are_same_layout(dst, t)\00", align 1
@.str.154 = private unnamed_addr constant [10 x i8] c"a != NULL\00", align 1
@.str.155 = private unnamed_addr constant [10 x i8] c"b != NULL\00", align 1
@.str.156 = private unnamed_addr constant [19 x i8] c"a->type == b->type\00", align 1
@.str.157 = private unnamed_addr constant [26 x i8] c"ggml_are_same_shape(a, b)\00", align 1
@.str.158 = private unnamed_addr constant [47 x i8] c"ggml_is_contiguous(a) && ggml_is_contiguous(b)\00", align 1

; Function Attrs: mustprogress uwtable
define internal noundef zeroext i1 @_ZL15are_same_layoutP11ggml_tensorS0_(ptr noundef %a, ptr noundef %b) #4 {
entry:
  %a.addr = alloca ptr, align 8
  %b.addr = alloca ptr, align 8
  store ptr %a, ptr %a.addr, align 8
  store ptr %b, ptr %b.addr, align 8
  br label %do.body

do.body:                                          ; preds = %entry
  %0 = load ptr, ptr %a.addr, align 8
  %cmp = icmp ne ptr %0, null
  br i1 %cmp, label %if.end, label %if.then

if.then:                                          ; preds = %do.body
  %1 = load ptr, ptr @stdout, align 8
  %call = call i32 @fflush(ptr noundef %1)
  %2 = load ptr, ptr @stderr, align 8
  %call1 = call i32 (ptr, ptr, ...) @fprintf(ptr noundef %2, ptr noundef @.str.2, ptr noundef @.str.3, i32 noundef 457, ptr noundef @.str.154)
  call void @ggml_print_backtrace()
  call void @abort() #21
  unreachable

if.end:                                           ; preds = %do.body
  br label %do.end

do.end:                                           ; preds = %if.end
  br label %do.body2

do.body2:                                         ; preds = %do.end
  %3 = load ptr, ptr %b.addr, align 8
  %cmp3 = icmp ne ptr %3, null
  br i1 %cmp3, label %if.end7, label %if.then4

if.then4:                                         ; preds = %do.body2
  %4 = load ptr, ptr @stdout, align 8
  %call5 = call i32 @fflush(ptr noundef %4)
  %5 = load ptr, ptr @stderr, align 8
  %call6 = call i32 (ptr, ptr, ...) @fprintf(ptr noundef %5, ptr noundef @.str.2, ptr noundef @.str.3, i32 noundef 458, ptr noundef @.str.155)
  call void @ggml_print_backtrace()
  call void @abort() #21
  unreachable

if.end7:                                          ; preds = %do.body2
  br label %do.end8

do.end8:                                          ; preds = %if.end7
  br label %do.body9

do.body9:                                         ; preds = %do.end8
  %6 = load ptr, ptr %a.addr, align 8
  %type = getelementptr inbounds %struct.ggml_tensor, ptr %6, i32 0, i32 0
  %7 = load i32, ptr %type, align 8
  %8 = load ptr, ptr %b.addr, align 8
  %type10 = getelementptr inbounds %struct.ggml_tensor, ptr %8, i32 0, i32 0
  %9 = load i32, ptr %type10, align 8
  %cmp11 = icmp eq i32 %7, %9
  br i1 %cmp11, label %if.end15, label %if.then12

if.then12:                                        ; preds = %do.body9
  %10 = load ptr, ptr @stdout, align 8
  %call13 = call i32 @fflush(ptr noundef %10)
  %11 = load ptr, ptr @stderr, align 8
  %call14 = call i32 (ptr, ptr, ...) @fprintf(ptr noundef %11, ptr noundef @.str.2, ptr noundef @.str.3, i32 noundef 459, ptr noundef @.str.156)
  call void @ggml_print_backtrace()
  call void @abort() #21
  unreachable

if.end15:                                         ; preds = %do.body9
  br label %do.end16

do.end16:                                         ; preds = %if.end15
  br label %do.body17

do.body17:                                        ; preds = %do.end16
  %12 = load ptr, ptr %a.addr, align 8
  %13 = load ptr, ptr %b.addr, align 8
  %call18 = call zeroext i1 @ggml_are_same_shape(ptr noundef %12, ptr noundef %13)
  br i1 %call18, label %if.end22, label %if.then19

if.then19:                                        ; preds = %do.body17
  %14 = load ptr, ptr @stdout, align 8
  %call20 = call i32 @fflush(ptr noundef %14)
  %15 = load ptr, ptr @stderr, align 8
  %call21 = call i32 (ptr, ptr, ...) @fprintf(ptr noundef %15, ptr noundef @.str.2, ptr noundef @.str.3, i32 noundef 460, ptr noundef @.str.157)
  call void @ggml_print_backtrace()
  call void @abort() #21
  unreachable

if.end22:                                         ; preds = %do.body17
  br label %do.end23

do.end23:                                         ; preds = %if.end22
  br label %do.body24

do.body24:                                        ; preds = %do.end23
  %16 = load ptr, ptr %a.addr, align 8
  %call25 = call zeroext i1 @ggml_is_contiguous(ptr noundef %16)
  br i1 %call25, label %land.lhs.true, label %if.then27

land.lhs.true:                                    ; preds = %do.body24
  %17 = load ptr, ptr %b.addr, align 8
  %call26 = call zeroext i1 @ggml_is_contiguous(ptr noundef %17)
  br i1 %call26, label %if.end30, label %if.then27

if.then27:                                        ; preds = %land.lhs.true, %do.body24
  %18 = load ptr, ptr @stdout, align 8
  %call28 = call i32 @fflush(ptr noundef %18)
  %19 = load ptr, ptr @stderr, align 8
  %call29 = call i32 (ptr, ptr, ...) @fprintf(ptr noundef %19, ptr noundef @.str.2, ptr noundef @.str.3, i32 noundef 461, ptr noundef @.str.158)
  call void @ggml_print_backtrace()
  call void @abort() #21
  unreachable

if.end30:                                         ; preds = %land.lhs.true
  br label %do.end31

do.end31:                                         ; preds = %if.end30
  ret i1 true
}

; Function Attrs: mustprogress uwtable
define void @_Z19copy_tensor_by_nameP11ggml_tensorP12ggml_contextPKc(ptr noundef %dst, ptr noundef %ctx, ptr noundef %name) #4 {
entry:
  %dst.addr = alloca ptr, align 8
  %ctx.addr = alloca ptr, align 8
  %name.addr = alloca ptr, align 8
  %t = alloca ptr, align 8
  store ptr %dst, ptr %dst.addr, align 8
  store ptr %ctx, ptr %ctx.addr, align 8
  store ptr %name, ptr %name.addr, align 8
  %0 = load ptr, ptr %dst.addr, align 8
  %cmp = icmp eq ptr %0, null
  br i1 %cmp, label %if.then, label %if.end

if.then:                                          ; preds = %entry
  br label %if.end13

if.end:                                           ; preds = %entry
  %1 = load ptr, ptr %ctx.addr, align 8
  %2 = load ptr, ptr %name.addr, align 8
  %call = call ptr @ggml_get_tensor(ptr noundef %1, ptr noundef %2)
  store ptr %call, ptr %t, align 8
  br label %do.body

do.body:                                          ; preds = %if.end
  %3 = load ptr, ptr %dst.addr, align 8
  %4 = load ptr, ptr %t, align 8
  %call1 = call noundef zeroext i1 @_ZL15are_same_layoutP11ggml_tensorS0_(ptr noundef %3, ptr noundef %4)
  br i1 %call1, label %if.end5, label %if.then2

if.then2:                                         ; preds = %do.body
  %5 = load ptr, ptr @stdout, align 8
  %call3 = call i32 @fflush(ptr noundef %5)
  %6 = load ptr, ptr @stderr, align 8
  %call4 = call i32 (ptr, ptr, ...) @fprintf(ptr noundef %6, ptr noundef @.str.2, ptr noundef @.str.3, i32 noundef 471, ptr noundef @.str.21)
  call void @ggml_print_backtrace()
  call void @abort() #21
  unreachable

if.end5:                                          ; preds = %do.body
  br label %do.end

do.end:                                           ; preds = %if.end5
  %7 = load ptr, ptr %dst.addr, align 8
  %data = getelementptr inbounds %struct.ggml_tensor, ptr %7, i32 0, i32 15
  %8 = load ptr, ptr %data, align 8
  %9 = load ptr, ptr %t, align 8
  %data6 = getelementptr inbounds %struct.ggml_tensor, ptr %9, i32 0, i32 15
  %10 = load ptr, ptr %data6, align 8
  %11 = load ptr, ptr %t, align 8
  %call7 = call i64 @ggml_nbytes(ptr noundef %11)
  call void @llvm.memcpy.p0.p0.i64(ptr align 1 %8, ptr align 1 %10, i64 %call7, i1 false)
  %12 = load ptr, ptr %dst.addr, align 8
  %call8 = call ptr @ggml_get_name(ptr noundef %12)
  %call9 = call i64 @strlen(ptr noundef %call8) #22
  %cmp10 = icmp eq i64 %call9, 0
  br i1 %cmp10, label %if.then11, label %if.end13

if.then11:                                        ; preds = %do.end
  %13 = load ptr, ptr %dst.addr, align 8
  %14 = load ptr, ptr %name.addr, align 8
  %call12 = call ptr @ggml_set_name(ptr noundef %13, ptr noundef %14)
  br label %if.end13

if.end13:                                         ; preds = %if.then11, %do.end, %if.then
  ret void
}