; Function Attrs: mustprogress uwtable
define void @_Z19copy_tensor_by_nameP11ggml_tensorP12ggml_contextPKc(ptr noundef %dst, ptr noundef %ctx, ptr noundef %name) local_unnamed_addr #3 {
entry:
  %cmp = icmp eq ptr %dst, null
  br i1 %cmp, label %if.end13, label %if.end

if.end:                                           ; preds = %entry
  %call = tail call ptr @ggml_get_tensor(ptr noundef %ctx, ptr noundef %name)
  %cmp3.not.i = icmp eq ptr %call, null
  br i1 %cmp3.not.i, label %if.then4.i, label %do.body9.i

if.then4.i:                                       ; preds = %if.end
  %0 = load ptr, ptr @stdout, align 8
  %call5.i = tail call i32 @fflush(ptr noundef %0)
  %1 = load ptr, ptr @stderr, align 8
  %call6.i = tail call i32 (ptr, ptr, ...) @fprintf(ptr noundef %1, ptr noundef nonnull @.str.2, ptr noundef nonnull @.str.3, i32 noundef 458, ptr noundef nonnull @.str.155) #39
  tail call void @ggml_print_backtrace()
  tail call void @abort() #41
  unreachable

do.body9.i:                                       ; preds = %if.end
  %2 = load i32, ptr %dst, align 8
  %3 = load i32, ptr %call, align 8
  %cmp11.i = icmp eq i32 %2, %3
  br i1 %cmp11.i, label %do.body17.i, label %if.then12.i

if.then12.i:                                      ; preds = %do.body9.i
  %4 = load ptr, ptr @stdout, align 8
  %call13.i = tail call i32 @fflush(ptr noundef %4)
  %5 = load ptr, ptr @stderr, align 8
  %call14.i = tail call i32 (ptr, ptr, ...) @fprintf(ptr noundef %5, ptr noundef nonnull @.str.2, ptr noundef nonnull @.str.3, i32 noundef 459, ptr noundef nonnull @.str.156) #39
  tail call void @ggml_print_backtrace()
  tail call void @abort() #41
  unreachable

do.body17.i:                                      ; preds = %do.body9.i
  %call18.i = tail call zeroext i1 @ggml_are_same_shape(ptr noundef nonnull %dst, ptr noundef nonnull %call)
  br i1 %call18.i, label %do.body24.i, label %if.then19.i

if.then19.i:                                      ; preds = %do.body17.i
  %6 = load ptr, ptr @stdout, align 8
  %call20.i = tail call i32 @fflush(ptr noundef %6)
  %7 = load ptr, ptr @stderr, align 8
  %call21.i = tail call i32 (ptr, ptr, ...) @fprintf(ptr noundef %7, ptr noundef nonnull @.str.2, ptr noundef nonnull @.str.3, i32 noundef 460, ptr noundef nonnull @.str.157) #39
  tail call void @ggml_print_backtrace()
  tail call void @abort() #41
  unreachable

do.body24.i:                                      ; preds = %do.body17.i
  %call25.i = tail call zeroext i1 @ggml_is_contiguous(ptr noundef nonnull %dst)
  br i1 %call25.i, label %land.lhs.true.i, label %if.then27.i

land.lhs.true.i:                                  ; preds = %do.body24.i
  %call26.i = tail call zeroext i1 @ggml_is_contiguous(ptr noundef nonnull %call)
  br i1 %call26.i, label %_ZL15are_same_layoutP11ggml_tensorS0_.exit, label %if.then27.i

if.then27.i:                                      ; preds = %land.lhs.true.i, %do.body24.i
  %8 = load ptr, ptr @stdout, align 8
  %call28.i = tail call i32 @fflush(ptr noundef %8)
  %9 = load ptr, ptr @stderr, align 8
  %call29.i = tail call i32 (ptr, ptr, ...) @fprintf(ptr noundef %9, ptr noundef nonnull @.str.2, ptr noundef nonnull @.str.3, i32 noundef 461, ptr noundef nonnull @.str.158) #39
  tail call void @ggml_print_backtrace()
  tail call void @abort() #41
  unreachable

_ZL15are_same_layoutP11ggml_tensorS0_.exit:       ; preds = %land.lhs.true.i
  %data = getelementptr inbounds nuw i8, ptr %dst, i64 280
  %10 = load ptr, ptr %data, align 8
  %data6 = getelementptr inbounds nuw i8, ptr %call, i64 280
  %11 = load ptr, ptr %data6, align 8
  %call7 = tail call i64 @ggml_nbytes(ptr noundef nonnull %call)
  tail call void @llvm.memcpy.p0.p0.i64(ptr align 1 %10, ptr align 1 %11, i64 %call7, i1 false)
  %call8 = tail call ptr @ggml_get_name(ptr noundef nonnull %dst)
  %char0 = load i8, ptr %call8, align 1
  %cmp10 = icmp eq i8 %char0, 0
  br i1 %cmp10, label %if.then11, label %if.end13

if.then11:                                        ; preds = %_ZL15are_same_layoutP11ggml_tensorS0_.exit
  %call12 = tail call ptr @ggml_set_name(ptr noundef nonnull %dst, ptr noundef %name)
  br label %if.end13

if.end13:                                         ; preds = %entry, %if.then11, %_ZL15are_same_layoutP11ggml_tensorS0_.exit
  ret void
}